(lp1
(lp2
I0
aI0
aI0
aI0
aa(lp3
I18
aI0
aI0
aI0
aa(lp4
I1
aI0
aI0
aI0
aa(lp5
I56
aI0
aI0
aI0
aa(lp6
I26
aI0
aI0
aI0
aa(lp7
I18
aI0
aI0
aI0
aa(lp8
I41
aI0
aI0
aI0
aa(lp9
I13
aI0
aI0
aI0
aa(lp10
I24
aI0
aI0
aI0
aa(lp11
I60
aI0
aI0
aI0
aa(lp12
I3
aI0
aI0
aI0
aa(lp13
I5
aI0
aI0
aI0
aa(lp14
I24
aI0
aI0
aI0
aa(lp15
I17
aI0
aI0
aI0
aa(lp16
I10
aI0
aI0
aI0
aa(lp17
I60
aI0
aI0
aI0
aa.